target datalayout = "e-m:e-p270:32:32-p271:32:32-p272:64:64-i64:64-i128:128-f80:128-n8:16:32:64-S128"
target triple = "x86_64-pc-linux-gnu"

@.str.16 = private unnamed_addr constant [36 x i8] c"FATAL ERROR %s -> in %s @ in %s:%d \00", align 1
@.str.17 = private unnamed_addr constant [22 x i8] c"Should be unreachable\00", align 1
@.str.18 = private unnamed_addr constant [107 x i8] c"generated/home/dtcxzyw/WorkSpace/Projects/compilers/llvm-opt-benchmark/bench/c3c/c3c/src/compiler/target.c\00", align 1
@__func__.os_target_c_type_bits = private unnamed_addr constant [22 x i8] c"os_target_c_type_bits\00", align 1

; Function Attrs: nounwind uwtable
define internal i32 @os_target_c_type_bits(i32 noundef %0, i32 noundef %1, i32 noundef %2) #0 {
  %4 = alloca i32, align 4
  %5 = alloca i32, align 4
  %6 = alloca i32, align 4
  %7 = alloca i32, align 4
  store i32 %0, ptr %5, align 4
  store i32 %1, ptr %6, align 4
  store i32 %2, ptr %7, align 4
  %8 = load i32, ptr %5, align 4
  switch i32 %8, label %44 [
    i32 21, label %9
    i32 16, label %9
    i32 2, label %9
    i32 3, label %9
    i32 4, label %9
    i32 6, label %9
    i32 8, label %9
    i32 10, label %9
    i32 18, label %9
    i32 14, label %9
    i32 17, label %9
    i32 19, label %9
    i32 20, label %9
    i32 22, label %9
    i32 23, label %9
    i32 24, label %9
    i32 25, label %9
    i32 26, label %9
    i32 29, label %9
    i32 30, label %9
    i32 31, label %9
    i32 32, label %9
    i32 33, label %9
    i32 35, label %9
    i32 0, label %12
    i32 11, label %25
    i32 9, label %25
    i32 1, label %25
    i32 5, label %25
    i32 12, label %25
    i32 13, label %25
    i32 34, label %25
    i32 15, label %26
    i32 7, label %35
    i32 27, label %35
    i32 28, label %35
  ]

9:                                                ; preds = %3, %3, %3, %3, %3, %3, %3, %3, %3, %3, %3, %3, %3, %3, %3, %3, %3, %3, %3, %3, %3, %3, %3, %3
  br label %10

10:                                               ; preds = %9
  call void (ptr, ...) @error_exit(ptr noundef @.str.16, ptr noundef @.str.17, ptr noundef @__func__.os_target_c_type_bits, ptr noundef @.str.18, i32 noundef 1406) #7
  unreachable

11:                                               ; No predecessors!
  br label %12

12:                                               ; preds = %11, %3
  %13 = load i32, ptr %6, align 4
  %14 = icmp eq i32 %13, 15
  br i1 %14, label %15, label %24

15:                                               ; preds = %12
  %16 = load i32, ptr %7, align 4
  switch i32 %16, label %20 [
    i32 0, label %17
    i32 1, label %17
    i32 2, label %18
    i32 3, label %19
  ]

17:                                               ; preds = %15, %15
  store i32 16, ptr %4, align 4
  br label %56

18:                                               ; preds = %15
  store i32 32, ptr %4, align 4
  br label %56

19:                                               ; preds = %15
  store i32 64, ptr %4, align 4
  br label %56

20:                                               ; preds = %15
  br label %21

21:                                               ; preds = %20
  call void (ptr, ...) @error_exit(ptr noundef @.str.16, ptr noundef @.str.17, ptr noundef @__func__.os_target_c_type_bits, ptr noundef @.str.18, i32 noundef 1420) #7
  unreachable

22:                                               ; No predecessors!
  br label %23

23:                                               ; preds = %22
  br label %24

24:                                               ; preds = %23, %12
  br label %44

25:                                               ; preds = %3, %3, %3, %3, %3, %3, %3
  br label %44

26:                                               ; preds = %3
  %27 = load i32, ptr %7, align 4
  switch i32 %27, label %31 [
    i32 0, label %28
    i32 1, label %29
    i32 2, label %29
    i32 3, label %30
  ]

28:                                               ; preds = %26
  store i32 16, ptr %4, align 4
  br label %56

29:                                               ; preds = %26, %26
  store i32 32, ptr %4, align 4
  br label %56

30:                                               ; preds = %26
  store i32 64, ptr %4, align 4
  br label %56

31:                                               ; preds = %26
  br label %32

32:                                               ; preds = %31
  call void (ptr, ...) @error_exit(ptr noundef @.str.16, ptr noundef @.str.17, ptr noundef @__func__.os_target_c_type_bits, ptr noundef @.str.18, i32 noundef 1445) #7
  unreachable

33:                                               ; No predecessors!
  br label %34

34:                                               ; preds = %33
  br label %35

35:                                               ; preds = %34, %3, %3, %3
  %36 = load i32, ptr %7, align 4
  switch i32 %36, label %40 [
    i32 0, label %37
    i32 1, label %38
    i32 2, label %39
    i32 3, label %39
  ]

37:                                               ; preds = %35
  store i32 16, ptr %4, align 4
  br label %56

38:                                               ; preds = %35
  store i32 32, ptr %4, align 4
  br label %56

39:                                               ; preds = %35, %35
  store i32 64, ptr %4, align 4
  br label %56

40:                                               ; preds = %35
  br label %41

41:                                               ; preds = %40
  call void (ptr, ...) @error_exit(ptr noundef @.str.16, ptr noundef @.str.17, ptr noundef @__func__.os_target_c_type_bits, ptr noundef @.str.18, i32 noundef 1460) #7
  unreachable

42:                                               ; No predecessors!
  br label %43

43:                                               ; preds = %42
  br label %44

44:                                               ; preds = %43, %25, %24, %3
  %45 = load i32, ptr %7, align 4
  switch i32 %45, label %53 [
    i32 0, label %46
    i32 1, label %47
    i32 2, label %48
    i32 3, label %52
  ]

46:                                               ; preds = %44
  store i32 16, ptr %4, align 4
  br label %56

47:                                               ; preds = %44
  store i32 32, ptr %4, align 4
  br label %56

48:                                               ; preds = %44
  %49 = load i32, ptr %5, align 4
  %50 = load i32, ptr %6, align 4
  %51 = call i32 @arch_pointer_bit_width(i32 noundef %49, i32 noundef %50)
  store i32 %51, ptr %4, align 4
  br label %56

52:                                               ; preds = %44
  store i32 64, ptr %4, align 4
  br label %56

53:                                               ; preds = %44
  br label %54

54:                                               ; preds = %53
  call void (ptr, ...) @error_exit(ptr noundef @.str.16, ptr noundef @.str.17, ptr noundef @__func__.os_target_c_type_bits, ptr noundef @.str.18, i32 noundef 1474) #7
  unreachable

55:                                               ; No predecessors!
  br label %56

56:                                               ; preds = %55, %52, %48, %47, %46, %39, %38, %37, %30, %29, %28, %19, %18, %17
  %57 = load i32, ptr %4, align 4
  ret i32 %57
}