; Function Attrs: nounwind uwtable
define internal fastcc noundef i32 @os_target_c_type_bits(i32 noundef %0, i32 noundef %1, i32 noundef %2) unnamed_addr #2 {
  switch i32 %0, label %7 [
    i32 21, label %4
    i32 16, label %4
    i32 2, label %4
    i32 3, label %4
    i32 4, label %4
    i32 6, label %4
    i32 8, label %4
    i32 10, label %4
    i32 18, label %4
    i32 14, label %4
    i32 17, label %4
    i32 19, label %4
    i32 20, label %4
    i32 22, label %4
    i32 23, label %4
    i32 24, label %4
    i32 25, label %4
    i32 26, label %4
    i32 29, label %4
    i32 30, label %4
    i32 31, label %4
    i32 32, label %4
    i32 33, label %4
    i32 35, label %4
    i32 0, label %5
    i32 28, label %switch.lookup12
    i32 27, label %switch.lookup12
    i32 7, label %switch.lookup12
    i32 15, label %switch.lookup9
  ]

4:                                                ; preds = %3, %3, %3, %3, %3, %3, %3, %3, %3, %3, %3, %3, %3, %3, %3, %3, %3, %3, %3, %3, %3, %3, %3, %3
  tail call void (ptr, ...) @error_exit(ptr noundef nonnull @.str.16, ptr noundef nonnull @.str.17, ptr noundef nonnull @__func__.os_target_c_type_bits, ptr noundef nonnull @.str.18, i32 noundef 1406) #16
  unreachable

5:                                                ; preds = %3
  %6 = icmp eq i32 %1, 15
  br i1 %6, label %switch.lookup, label %7

default.unreachable:                              ; preds = %7
  unreachable

7:                                                ; preds = %5, %3
  switch i32 %2, label %default.unreachable [
    i32 0, label %15
    i32 1, label %8
    i32 2, label %9
    i32 3, label %11
  ]

8:                                                ; preds = %7
  br label %15

9:                                                ; preds = %7
  %10 = tail call fastcc i32 @arch_pointer_bit_width(i32 noundef %0, i32 noundef %1), !range !10
  br label %15

11:                                               ; preds = %7
  br label %15

switch.lookup:                                    ; preds = %5
  %12 = sext i32 %2 to i64
  %switch.gep = getelementptr inbounds [4 x i32], ptr @switch.table.os_target_c_type_bits, i64 0, i64 %12
  %switch.load = load i32, ptr %switch.gep, align 4
  br label %15

switch.lookup9:                                   ; preds = %3
  %13 = sext i32 %2 to i64
  %switch.gep10 = getelementptr inbounds [4 x i32], ptr @switch.table.os_target_c_type_bits.6, i64 0, i64 %13
  %switch.load11 = load i32, ptr %switch.gep10, align 4
  br label %15

switch.lookup12:                                  ; preds = %3, %3, %3
  %14 = sext i32 %2 to i64
  %switch.gep13 = getelementptr inbounds [4 x i32], ptr @switch.table.os_target_c_type_bits.7, i64 0, i64 %14
  %switch.load14 = load i32, ptr %switch.gep13, align 4
  br label %15

15:                                               ; preds = %switch.lookup12, %switch.lookup9, %switch.lookup, %7, %11, %9, %8
  %.0 = phi i32 [ 64, %11 ], [ %10, %9 ], [ 32, %8 ], [ 16, %7 ], [ %switch.load, %switch.lookup ], [ %switch.load11, %switch.lookup9 ], [ %switch.load14, %switch.lookup12 ]
  ret i32 %.0
}